target datalayout = "e-m:e-p270:32:32-p271:32:32-p272:64:64-i64:64-i128:128-f80:128-n8:16:32:64-S128"
target triple = "x86_64-pc-linux-gnu"

%struct.AVRational = type { i32, i32 }
%struct.AVFrame = type { [8 x ptr], [8 x i32], ptr, i32, i32, i32, i32, i32, %struct.AVRational, i64, i64, %struct.AVRational, i32, ptr, i32, i32, [8 x ptr], ptr, i32, ptr, i32, i32, i32, i32, i32, i32, i32, i64, ptr, i32, ptr, ptr, i64, i64, i64, i64, ptr, %struct.AVChannelLayout, i64 }
%struct.AVChannelLayout = type { i32, i32, %union.anon, ptr }
%union.anon = type { i64 }

; Function Attrs: inlinehint nounwind uwtable
define internal void @av_image_copy2(ptr noundef %0, ptr noundef %1, ptr noundef %2, ptr noundef %3, i32 noundef %4, i32 noundef %5, i32 noundef %6) #5 {
  %8 = alloca ptr, align 8
  %9 = alloca ptr, align 8
  %10 = alloca ptr, align 8
  %11 = alloca ptr, align 8
  %12 = alloca i32, align 4
  %13 = alloca i32, align 4
  %14 = alloca i32, align 4
  store ptr %0, ptr %8, align 8, !tbaa !97
  store ptr %1, ptr %9, align 8, !tbaa !124
  store ptr %2, ptr %10, align 8, !tbaa !97
  store ptr %3, ptr %11, align 8, !tbaa !124
  store i32 %4, ptr %12, align 4, !tbaa !27
  store i32 %5, ptr %13, align 4, !tbaa !27
  store i32 %6, ptr %14, align 4, !tbaa !27
  %15 = load ptr, ptr %8, align 8, !tbaa !97
  %16 = load ptr, ptr %9, align 8, !tbaa !124
  %17 = load ptr, ptr %10, align 8, !tbaa !97
  %18 = load ptr, ptr %11, align 8, !tbaa !124
  %19 = load i32, ptr %12, align 4, !tbaa !27
  %20 = load i32, ptr %13, align 4, !tbaa !27
  %21 = load i32, ptr %14, align 4, !tbaa !27
  call void @av_image_copy(ptr noundef %15, ptr noundef %16, ptr noundef %17, ptr noundef %18, i32 noundef %19, i32 noundef %20, i32 noundef %21)
  ret void
}

; Function Attrs: nounwind uwtable
define internal i32 @frame_copy_audio(ptr noundef %0, ptr noundef %1) #0 {
  %3 = alloca i32, align 4
  %4 = alloca ptr, align 8
  %5 = alloca ptr, align 8
  %6 = alloca i32, align 4
  %7 = alloca i32, align 4
  %8 = alloca i32, align 4
  %9 = alloca i32, align 4
  %10 = alloca i32, align 4
  store ptr %0, ptr %4, align 8, !tbaa !4
  store ptr %1, ptr %5, align 8, !tbaa !4
  call void @llvm.lifetime.start.p0(i64 4, ptr %6) #7
  %11 = load ptr, ptr %4, align 8, !tbaa !4
  %12 = getelementptr inbounds nuw %struct.AVFrame, ptr %11, i32 0, i32 6
  %13 = load i32, ptr %12, align 4, !tbaa !28
  %14 = call i32 @av_sample_fmt_is_planar(i32 noundef %13)
  store i32 %14, ptr %6, align 4, !tbaa !27
  call void @llvm.lifetime.start.p0(i64 4, ptr %7) #7
  %15 = load ptr, ptr %4, align 8, !tbaa !4
  %16 = getelementptr inbounds nuw %struct.AVFrame, ptr %15, i32 0, i32 37
  %17 = getelementptr inbounds nuw %struct.AVChannelLayout, ptr %16, i32 0, i32 1
  %18 = load i32, ptr %17, align 4, !tbaa !60
  store i32 %18, ptr %7, align 4, !tbaa !27
  call void @llvm.lifetime.start.p0(i64 4, ptr %8) #7
  %19 = load i32, ptr %6, align 4, !tbaa !27
  %20 = icmp ne i32 %19, 0
  br i1 %20, label %21, label %23

21:                                               ; preds = %2
  %22 = load i32, ptr %7, align 4, !tbaa !27
  br label %24

23:                                               ; preds = %2
  br label %24

24:                                               ; preds = %23, %21
  %25 = phi i32 [ %22, %21 ], [ 1, %23 ]
  store i32 %25, ptr %8, align 4, !tbaa !27
  %26 = load ptr, ptr %4, align 8, !tbaa !4
  %27 = getelementptr inbounds nuw %struct.AVFrame, ptr %26, i32 0, i32 5
  %28 = load i32, ptr %27, align 8, !tbaa !45
  %29 = load ptr, ptr %5, align 8, !tbaa !4
  %30 = getelementptr inbounds nuw %struct.AVFrame, ptr %29, i32 0, i32 5
  %31 = load i32, ptr %30, align 8, !tbaa !45
  %32 = icmp ne i32 %28, %31
  br i1 %32, label %40, label %33

33:                                               ; preds = %24
  %34 = load ptr, ptr %4, align 8, !tbaa !4
  %35 = getelementptr inbounds nuw %struct.AVFrame, ptr %34, i32 0, i32 37
  %36 = load ptr, ptr %5, align 8, !tbaa !4
  %37 = getelementptr inbounds nuw %struct.AVFrame, ptr %36, i32 0, i32 37
  %38 = call i32 @av_channel_layout_compare(ptr noundef %35, ptr noundef %37)
  %39 = icmp ne i32 %38, 0
  br i1 %39, label %40, label %41

40:                                               ; preds = %33, %24
  store i32 -22, ptr %3, align 4
  store i32 1, ptr %9, align 4
  br label %87

41:                                               ; preds = %33
  call void @llvm.lifetime.start.p0(i64 4, ptr %10) #7
  store i32 0, ptr %10, align 4, !tbaa !27
  br label %42

42:                                               ; preds = %67, %41
  %43 = load i32, ptr %10, align 4, !tbaa !27
  %44 = load i32, ptr %8, align 4, !tbaa !27
  %45 = icmp slt i32 %43, %44
  br i1 %45, label %47, label %46

46:                                               ; preds = %42
  store i32 2, ptr %9, align 4
  br label %70

47:                                               ; preds = %42
  %48 = load ptr, ptr %4, align 8, !tbaa !4
  %49 = getelementptr inbounds nuw %struct.AVFrame, ptr %48, i32 0, i32 2
  %50 = load ptr, ptr %49, align 8, !tbaa !29
  %51 = load i32, ptr %10, align 4, !tbaa !27
  %52 = sext i32 %51 to i64
  %53 = getelementptr inbounds ptr, ptr %50, i64 %52
  %54 = load ptr, ptr %53, align 8, !tbaa !58
  %55 = icmp ne ptr %54, null
  br i1 %55, label %56, label %65

56:                                               ; preds = %47
  %57 = load ptr, ptr %5, align 8, !tbaa !4
  %58 = getelementptr inbounds nuw %struct.AVFrame, ptr %57, i32 0, i32 2
  %59 = load ptr, ptr %58, align 8, !tbaa !29
  %60 = load i32, ptr %10, align 4, !tbaa !27
  %61 = sext i32 %60 to i64
  %62 = getelementptr inbounds ptr, ptr %59, i64 %61
  %63 = load ptr, ptr %62, align 8, !tbaa !58
  %64 = icmp ne ptr %63, null
  br i1 %64, label %66, label %65

65:                                               ; preds = %56, %47
  store i32 -22, ptr %3, align 4
  store i32 1, ptr %9, align 4
  br label %70

66:                                               ; preds = %56
  br label %67

67:                                               ; preds = %66
  %68 = load i32, ptr %10, align 4, !tbaa !27
  %69 = add nsw i32 %68, 1
  store i32 %69, ptr %10, align 4, !tbaa !27
  br label %42, !llvm.loop !107

70:                                               ; preds = %65, %46
  call void @llvm.lifetime.end.p0(i64 4, ptr %10) #7
  %71 = load i32, ptr %9, align 4
  switch i32 %71, label %87 [
    i32 2, label %72
  ]

72:                                               ; preds = %70
  %73 = load ptr, ptr %4, align 8, !tbaa !4
  %74 = getelementptr inbounds nuw %struct.AVFrame, ptr %73, i32 0, i32 2
  %75 = load ptr, ptr %74, align 8, !tbaa !29
  %76 = load ptr, ptr %5, align 8, !tbaa !4
  %77 = getelementptr inbounds nuw %struct.AVFrame, ptr %76, i32 0, i32 2
  %78 = load ptr, ptr %77, align 8, !tbaa !29
  %79 = load ptr, ptr %4, align 8, !tbaa !4
  %80 = getelementptr inbounds nuw %struct.AVFrame, ptr %79, i32 0, i32 5
  %81 = load i32, ptr %80, align 8, !tbaa !45
  %82 = load i32, ptr %7, align 4, !tbaa !27
  %83 = load ptr, ptr %4, align 8, !tbaa !4
  %84 = getelementptr inbounds nuw %struct.AVFrame, ptr %83, i32 0, i32 6
  %85 = load i32, ptr %84, align 4, !tbaa !28
  %86 = call i32 @av_samples_copy(ptr noundef %75, ptr noundef %78, i32 noundef 0, i32 noundef 0, i32 noundef %81, i32 noundef %82, i32 noundef %85)
  store i32 0, ptr %3, align 4
  store i32 1, ptr %9, align 4
  br label %87

87:                                               ; preds = %72, %70, %40
  call void @llvm.lifetime.end.p0(i64 4, ptr %8) #7
  call void @llvm.lifetime.end.p0(i64 4, ptr %7) #7
  call void @llvm.lifetime.end.p0(i64 4, ptr %6) #7
  %88 = load i32, ptr %3, align 4
  ret i32 %88
}

; Function Attrs: nounwind uwtable
define internal i32 @frame_copy_video(ptr noundef %0, ptr noundef %1) #0 {
  %3 = alloca i32, align 4
  %4 = alloca ptr, align 8
  %5 = alloca ptr, align 8
  %6 = alloca i32, align 4
  %7 = alloca i32, align 4
  %8 = alloca i32, align 4
  store ptr %0, ptr %4, align 8, !tbaa !4
  store ptr %1, ptr %5, align 8, !tbaa !4
  call void @llvm.lifetime.start.p0(i64 4, ptr %6) #7
  %9 = load ptr, ptr %4, align 8, !tbaa !4
  %10 = getelementptr inbounds nuw %struct.AVFrame, ptr %9, i32 0, i32 3
  %11 = load i32, ptr %10, align 8, !tbaa !43
  %12 = load ptr, ptr %5, align 8, !tbaa !4
  %13 = getelementptr inbounds nuw %struct.AVFrame, ptr %12, i32 0, i32 3
  %14 = load i32, ptr %13, align 8, !tbaa !43
  %15 = icmp slt i32 %11, %14
  br i1 %15, label %24, label %16

16:                                               ; preds = %2
  %17 = load ptr, ptr %4, align 8, !tbaa !4
  %18 = getelementptr inbounds nuw %struct.AVFrame, ptr %17, i32 0, i32 4
  %19 = load i32, ptr %18, align 4, !tbaa !44
  %20 = load ptr, ptr %5, align 8, !tbaa !4
  %21 = getelementptr inbounds nuw %struct.AVFrame, ptr %20, i32 0, i32 4
  %22 = load i32, ptr %21, align 4, !tbaa !44
  %23 = icmp slt i32 %19, %22
  br i1 %23, label %24, label %25

24:                                               ; preds = %16, %2
  store i32 -22, ptr %3, align 4
  store i32 1, ptr %7, align 4
  br label %94

25:                                               ; preds = %16
  %26 = load ptr, ptr %5, align 8, !tbaa !4
  %27 = getelementptr inbounds nuw %struct.AVFrame, ptr %26, i32 0, i32 30
  %28 = load ptr, ptr %27, align 8, !tbaa !65
  %29 = icmp ne ptr %28, null
  br i1 %29, label %35, label %30

30:                                               ; preds = %25
  %31 = load ptr, ptr %4, align 8, !tbaa !4
  %32 = getelementptr inbounds nuw %struct.AVFrame, ptr %31, i32 0, i32 30
  %33 = load ptr, ptr %32, align 8, !tbaa !65
  %34 = icmp ne ptr %33, null
  br i1 %34, label %35, label %39

35:                                               ; preds = %30, %25
  %36 = load ptr, ptr %4, align 8, !tbaa !4
  %37 = load ptr, ptr %5, align 8, !tbaa !4
  %38 = call i32 @av_hwframe_transfer_data(ptr noundef %36, ptr noundef %37, i32 noundef 0)
  store i32 %38, ptr %3, align 4
  store i32 1, ptr %7, align 4
  br label %94

39:                                               ; preds = %30
  %40 = load ptr, ptr %4, align 8, !tbaa !4
  %41 = getelementptr inbounds nuw %struct.AVFrame, ptr %40, i32 0, i32 6
  %42 = load i32, ptr %41, align 4, !tbaa !28
  %43 = call i32 @av_pix_fmt_count_planes(i32 noundef %42)
  store i32 %43, ptr %6, align 4, !tbaa !27
  call void @llvm.lifetime.start.p0(i64 4, ptr %8) #7
  store i32 0, ptr %8, align 4, !tbaa !27
  br label %44

44:                                               ; preds = %67, %39
  %45 = load i32, ptr %8, align 4, !tbaa !27
  %46 = load i32, ptr %6, align 4, !tbaa !27
  %47 = icmp slt i32 %45, %46
  br i1 %47, label %49, label %48

48:                                               ; preds = %44
  store i32 2, ptr %7, align 4
  br label %70

49:                                               ; preds = %44
  %50 = load ptr, ptr %4, align 8, !tbaa !4
  %51 = getelementptr inbounds nuw %struct.AVFrame, ptr %50, i32 0, i32 0
  %52 = load i32, ptr %8, align 4, !tbaa !27
  %53 = sext i32 %52 to i64
  %54 = getelementptr inbounds [8 x ptr], ptr %51, i64 0, i64 %53
  %55 = load ptr, ptr %54, align 8, !tbaa !58
  %56 = icmp ne ptr %55, null
  br i1 %56, label %57, label %65

57:                                               ; preds = %49
  %58 = load ptr, ptr %5, align 8, !tbaa !4
  %59 = getelementptr inbounds nuw %struct.AVFrame, ptr %58, i32 0, i32 0
  %60 = load i32, ptr %8, align 4, !tbaa !27
  %61 = sext i32 %60 to i64
  %62 = getelementptr inbounds [8 x ptr], ptr %59, i64 0, i64 %61
  %63 = load ptr, ptr %62, align 8, !tbaa !58
  %64 = icmp ne ptr %63, null
  br i1 %64, label %66, label %65

65:                                               ; preds = %57, %49
  store i32 -22, ptr %3, align 4
  store i32 1, ptr %7, align 4
  br label %70

66:                                               ; preds = %57
  br label %67

67:                                               ; preds = %66
  %68 = load i32, ptr %8, align 4, !tbaa !27
  %69 = add nsw i32 %68, 1
  store i32 %69, ptr %8, align 4, !tbaa !27
  br label %44, !llvm.loop !106

70:                                               ; preds = %65, %48
  call void @llvm.lifetime.end.p0(i64 4, ptr %8) #7
  %71 = load i32, ptr %7, align 4
  switch i32 %71, label %94 [
    i32 2, label %72
  ]

72:                                               ; preds = %70
  %73 = load ptr, ptr %4, align 8, !tbaa !4
  %74 = getelementptr inbounds nuw %struct.AVFrame, ptr %73, i32 0, i32 0
  %75 = getelementptr inbounds [8 x ptr], ptr %74, i64 0, i64 0
  %76 = load ptr, ptr %4, align 8, !tbaa !4
  %77 = getelementptr inbounds nuw %struct.AVFrame, ptr %76, i32 0, i32 1
  %78 = getelementptr inbounds [8 x i32], ptr %77, i64 0, i64 0
  %79 = load ptr, ptr %5, align 8, !tbaa !4
  %80 = getelementptr inbounds nuw %struct.AVFrame, ptr %79, i32 0, i32 0
  %81 = getelementptr inbounds [8 x ptr], ptr %80, i64 0, i64 0
  %82 = load ptr, ptr %5, align 8, !tbaa !4
  %83 = getelementptr inbounds nuw %struct.AVFrame, ptr %82, i32 0, i32 1
  %84 = getelementptr inbounds [8 x i32], ptr %83, i64 0, i64 0
  %85 = load ptr, ptr %4, align 8, !tbaa !4
  %86 = getelementptr inbounds nuw %struct.AVFrame, ptr %85, i32 0, i32 6
  %87 = load i32, ptr %86, align 4, !tbaa !28
  %88 = load ptr, ptr %5, align 8, !tbaa !4
  %89 = getelementptr inbounds nuw %struct.AVFrame, ptr %88, i32 0, i32 3
  %90 = load i32, ptr %89, align 8, !tbaa !43
  %91 = load ptr, ptr %5, align 8, !tbaa !4
  %92 = getelementptr inbounds nuw %struct.AVFrame, ptr %91, i32 0, i32 4
  %93 = load i32, ptr %92, align 4, !tbaa !44
  call void @av_image_copy2(ptr noundef %75, ptr noundef %78, ptr noundef %81, ptr noundef %84, i32 noundef %87, i32 noundef %90, i32 noundef %93)
  store i32 0, ptr %3, align 4
  store i32 1, ptr %7, align 4
  br label %94

94:                                               ; preds = %72, %70, %35, %24
  call void @llvm.lifetime.end.p0(i64 4, ptr %6) #7
  %95 = load i32, ptr %3, align 4
  ret i32 %95
}

; Function Attrs: nounwind uwtable
define i32 @av_frame_copy(ptr noundef %0, ptr noundef %1) #0 {
  %3 = alloca i32, align 4
  %4 = alloca ptr, align 8
  %5 = alloca ptr, align 8
  store ptr %0, ptr %4, align 8, !tbaa !4
  store ptr %1, ptr %5, align 8, !tbaa !4
  %6 = load ptr, ptr %4, align 8, !tbaa !4
  %7 = getelementptr inbounds nuw %struct.AVFrame, ptr %6, i32 0, i32 6
  %8 = load i32, ptr %7, align 4, !tbaa !28
  %9 = load ptr, ptr %5, align 8, !tbaa !4
  %10 = getelementptr inbounds nuw %struct.AVFrame, ptr %9, i32 0, i32 6
  %11 = load i32, ptr %10, align 4, !tbaa !28
  %12 = icmp ne i32 %8, %11
  br i1 %12, label %18, label %13

13:                                               ; preds = %2
  %14 = load ptr, ptr %4, align 8, !tbaa !4
  %15 = getelementptr inbounds nuw %struct.AVFrame, ptr %14, i32 0, i32 6
  %16 = load i32, ptr %15, align 4, !tbaa !28
  %17 = icmp slt i32 %16, 0
  br i1 %17, label %18, label %19

18:                                               ; preds = %13, %2
  store i32 -22, ptr %3, align 4
  br label %49

19:                                               ; preds = %13
  %20 = load ptr, ptr %4, align 8, !tbaa !4
  %21 = getelementptr inbounds nuw %struct.AVFrame, ptr %20, i32 0, i32 3
  %22 = load i32, ptr %21, align 8, !tbaa !43
  %23 = icmp sgt i32 %22, 0
  br i1 %23, label %24, label %33

24:                                               ; preds = %19
  %25 = load ptr, ptr %4, align 8, !tbaa !4
  %26 = getelementptr inbounds nuw %struct.AVFrame, ptr %25, i32 0, i32 4
  %27 = load i32, ptr %26, align 4, !tbaa !44
  %28 = icmp sgt i32 %27, 0
  br i1 %28, label %29, label %33

29:                                               ; preds = %24
  %30 = load ptr, ptr %4, align 8, !tbaa !4
  %31 = load ptr, ptr %5, align 8, !tbaa !4
  %32 = call i32 @frame_copy_video(ptr noundef %30, ptr noundef %31)
  store i32 %32, ptr %3, align 4
  br label %49

33:                                               ; preds = %24, %19
  %34 = load ptr, ptr %4, align 8, !tbaa !4
  %35 = getelementptr inbounds nuw %struct.AVFrame, ptr %34, i32 0, i32 5
  %36 = load i32, ptr %35, align 8, !tbaa !45
  %37 = icmp sgt i32 %36, 0
  br i1 %37, label %38, label %47

38:                                               ; preds = %33
  %39 = load ptr, ptr %4, align 8, !tbaa !4
  %40 = getelementptr inbounds nuw %struct.AVFrame, ptr %39, i32 0, i32 37
  %41 = call i32 @av_channel_layout_check(ptr noundef %40)
  %42 = icmp ne i32 %41, 0
  br i1 %42, label %43, label %47

43:                                               ; preds = %38
  %44 = load ptr, ptr %4, align 8, !tbaa !4
  %45 = load ptr, ptr %5, align 8, !tbaa !4
  %46 = call i32 @frame_copy_audio(ptr noundef %44, ptr noundef %45)
  store i32 %46, ptr %3, align 4
  br label %49

47:                                               ; preds = %38, %33
  br label %48

48:                                               ; preds = %47
  store i32 -22, ptr %3, align 4
  br label %49

49:                                               ; preds = %48, %43, %29, %18
  %50 = load i32, ptr %3, align 4
  ret i32 %50
}