; Function Attrs: nounwind uwtable
define i32 @av_frame_copy(ptr noundef %0, ptr noundef %1) local_unnamed_addr #0 {
  %3 = getelementptr inbounds nuw i8, ptr %0, i64 116
  %4 = load i32, ptr %3, align 4, !tbaa !23
  %5 = getelementptr inbounds nuw i8, ptr %1, i64 116
  %6 = load i32, ptr %5, align 4, !tbaa !23
  %.not = icmp ne i32 %4, %6
  %7 = icmp slt i32 %4, 0
  %or.cond = or i1 %7, %.not
  br i1 %or.cond, label %frame_copy_video.exit, label %8

8:                                                ; preds = %2
  %9 = getelementptr inbounds nuw i8, ptr %0, i64 104
  %10 = load i32, ptr %9, align 8, !tbaa !35
  %11 = icmp sgt i32 %10, 0
  br i1 %11, label %12, label %45

12:                                               ; preds = %8
  %13 = getelementptr inbounds nuw i8, ptr %0, i64 108
  %14 = load i32, ptr %13, align 4, !tbaa !36
  %15 = icmp sgt i32 %14, 0
  br i1 %15, label %16, label %45

16:                                               ; preds = %12
  %17 = getelementptr inbounds nuw i8, ptr %1, i64 104
  %18 = load i32, ptr %17, align 8, !tbaa !35
  %19 = icmp slt i32 %10, %18
  br i1 %19, label %frame_copy_video.exit, label %20

20:                                               ; preds = %16
  %21 = getelementptr inbounds nuw i8, ptr %1, i64 108
  %22 = load i32, ptr %21, align 4, !tbaa !36
  %23 = icmp slt i32 %14, %22
  br i1 %23, label %frame_copy_video.exit, label %24

24:                                               ; preds = %20
  %25 = getelementptr inbounds nuw i8, ptr %1, i64 328
  %26 = load ptr, ptr %25, align 8, !tbaa !55
  %.not.i = icmp eq ptr %26, null
  br i1 %.not.i, label %27, label %30

27:                                               ; preds = %24
  %28 = getelementptr inbounds nuw i8, ptr %0, i64 328
  %29 = load ptr, ptr %28, align 8, !tbaa !55
  %.not26.i = icmp eq ptr %29, null
  br i1 %.not26.i, label %32, label %30

30:                                               ; preds = %27, %24
  %31 = tail call i32 @av_hwframe_transfer_data(ptr noundef nonnull %0, ptr noundef nonnull %1, i32 noundef 0) #8
  br label %frame_copy_video.exit

32:                                               ; preds = %27
  %33 = tail call i32 @av_pix_fmt_count_planes(i32 noundef %4) #8
  %.not2930.i = icmp sgt i32 %33, 0
  br i1 %.not2930.i, label %.lr.ph.preheader.i, label %.critedge.i

.lr.ph.preheader.i:                               ; preds = %32
  %wide.trip.count.i = zext nneg i32 %33 to i64
  br label %.lr.ph.i

34:                                               ; preds = %37
  %indvars.iv.next.i = add nuw nsw i64 %indvars.iv.i, 1
  %exitcond.not.i = icmp eq i64 %indvars.iv.next.i, %wide.trip.count.i
  br i1 %exitcond.not.i, label %.critedge.i, label %.lr.ph.i, !llvm.loop !83

.lr.ph.i:                                         ; preds = %34, %.lr.ph.preheader.i
  %indvars.iv.i = phi i64 [ 0, %.lr.ph.preheader.i ], [ %indvars.iv.next.i, %34 ]
  %35 = getelementptr inbounds nuw [8 x ptr], ptr %0, i64 0, i64 %indvars.iv.i
  %36 = load ptr, ptr %35, align 8, !tbaa !47
  %.not27.i = icmp eq ptr %36, null
  br i1 %.not27.i, label %frame_copy_video.exit, label %37

37:                                               ; preds = %.lr.ph.i
  %38 = getelementptr inbounds nuw [8 x ptr], ptr %1, i64 0, i64 %indvars.iv.i
  %39 = load ptr, ptr %38, align 8, !tbaa !47
  %.not28.i = icmp eq ptr %39, null
  br i1 %.not28.i, label %frame_copy_video.exit, label %34

.critedge.i:                                      ; preds = %34, %32
  %40 = getelementptr inbounds nuw i8, ptr %0, i64 64
  %41 = getelementptr inbounds nuw i8, ptr %1, i64 64
  %42 = load i32, ptr %3, align 4, !tbaa !23
  %43 = load i32, ptr %17, align 8, !tbaa !35
  %44 = load i32, ptr %21, align 4, !tbaa !36
  tail call void @av_image_copy(ptr noundef nonnull %0, ptr noundef nonnull %40, ptr noundef nonnull %1, ptr noundef nonnull %41, i32 noundef %42, i32 noundef %43, i32 noundef %44) #8
  br label %frame_copy_video.exit

45:                                               ; preds = %12, %8
  %46 = getelementptr inbounds nuw i8, ptr %0, i64 112
  %47 = load i32, ptr %46, align 8, !tbaa !49
  %48 = icmp sgt i32 %47, 0
  br i1 %48, label %49, label %frame_copy_video.exit

49:                                               ; preds = %45
  %50 = getelementptr inbounds nuw i8, ptr %0, i64 384
  %51 = tail call i32 @av_channel_layout_check(ptr noundef nonnull %50) #8
  %.not12 = icmp eq i32 %51, 0
  br i1 %.not12, label %frame_copy_video.exit, label %52

52:                                               ; preds = %49
  %53 = load i32, ptr %3, align 4, !tbaa !23
  %54 = tail call i32 @av_sample_fmt_is_planar(i32 noundef %53) #8
  %55 = getelementptr inbounds nuw i8, ptr %0, i64 388
  %56 = load i32, ptr %55, align 4, !tbaa !50
  %.not.i13 = icmp eq i32 %54, 0
  %57 = select i1 %.not.i13, i32 1, i32 %56
  %58 = load i32, ptr %46, align 8, !tbaa !49
  %59 = getelementptr inbounds nuw i8, ptr %1, i64 112
  %60 = load i32, ptr %59, align 8, !tbaa !49
  %.not23.i = icmp eq i32 %58, %60
  br i1 %.not23.i, label %61, label %frame_copy_video.exit

61:                                               ; preds = %52
  %62 = getelementptr inbounds nuw i8, ptr %1, i64 384
  %63 = tail call i32 @av_channel_layout_compare(ptr noundef nonnull %50, ptr noundef nonnull %62) #8
  %.not24.i = icmp eq i32 %63, 0
  br i1 %.not24.i, label %.preheader.i, label %frame_copy_video.exit

.preheader.i:                                     ; preds = %61
  %.not2728.i = icmp sgt i32 %57, 0
  %64 = getelementptr inbounds nuw i8, ptr %0, i64 96
  %65 = load ptr, ptr %64, align 8, !tbaa !24
  %66 = getelementptr inbounds nuw i8, ptr %1, i64 96
  br i1 %.not2728.i, label %.lr.ph.i15, label %.preheader..critedge_crit_edge.i

.preheader..critedge_crit_edge.i:                 ; preds = %.preheader.i
  %.pre32.i = load ptr, ptr %66, align 8, !tbaa !24
  br label %.critedge.i14

.lr.ph.i15:                                       ; preds = %.preheader.i
  %wide.trip.count.i16 = zext nneg i32 %57 to i64
  br label %68

67:                                               ; preds = %71
  %indvars.iv.next.i19 = add nuw nsw i64 %indvars.iv.i17, 1
  %exitcond.not.i20 = icmp eq i64 %indvars.iv.next.i19, %wide.trip.count.i16
  br i1 %exitcond.not.i20, label %.critedge.i14, label %68, !llvm.loop !84

68:                                               ; preds = %67, %.lr.ph.i15
  %indvars.iv.i17 = phi i64 [ 0, %.lr.ph.i15 ], [ %indvars.iv.next.i19, %67 ]
  %69 = getelementptr inbounds nuw ptr, ptr %65, i64 %indvars.iv.i17
  %70 = load ptr, ptr %69, align 8, !tbaa !47
  %.not25.i = icmp eq ptr %70, null
  br i1 %.not25.i, label %frame_copy_video.exit, label %71

71:                                               ; preds = %68
  %72 = load ptr, ptr %66, align 8, !tbaa !24
  %73 = getelementptr inbounds nuw ptr, ptr %72, i64 %indvars.iv.i17
  %74 = load ptr, ptr %73, align 8, !tbaa !47
  %.not26.i18 = icmp eq ptr %74, null
  br i1 %.not26.i18, label %frame_copy_video.exit, label %67

.critedge.i14:                                    ; preds = %67, %.preheader..critedge_crit_edge.i
  %75 = phi ptr [ %.pre32.i, %.preheader..critedge_crit_edge.i ], [ %72, %67 ]
  %76 = load i32, ptr %46, align 8, !tbaa !49
  %77 = load i32, ptr %3, align 4, !tbaa !23
  %78 = tail call i32 @av_samples_copy(ptr noundef %65, ptr noundef %75, i32 noundef 0, i32 noundef 0, i32 noundef %76, i32 noundef %56, i32 noundef %77) #8
  br label %frame_copy_video.exit

frame_copy_video.exit:                            ; preds = %71, %68, %37, %.lr.ph.i, %.critedge.i14, %61, %52, %.critedge.i, %30, %20, %16, %49, %45, %2
  %.0 = phi i32 [ -22, %2 ], [ -22, %45 ], [ -22, %49 ], [ %31, %30 ], [ 0, %.critedge.i ], [ -22, %20 ], [ -22, %16 ], [ 0, %.critedge.i14 ], [ -22, %61 ], [ -22, %52 ], [ -22, %.lr.ph.i ], [ -22, %37 ], [ -22, %68 ], [ -22, %71 ]
  ret i32 %.0
}